; Function Attrs: nounwind uwtable
define ptr @l_Array_forIn_x27Unsafe_loop___at_Lean_Elab_Tactic_GuardMsgs_parseGuardMsgsSpec___spec__2___lambda__1(ptr noundef %0, ptr noundef %1, i8 noundef zeroext %2, ptr noundef %3) local_unnamed_addr #0 {
  %5 = ptrtoint ptr %3 to i64
  %6 = and i64 %5, 1
  %.not = icmp eq i64 %6, 0
  br i1 %.not, label %7, label %lean_inc.exit24

7:                                                ; preds = %4
  %.val.i = load i32, ptr %3, align 4, !tbaa !8
  %8 = icmp sgt i32 %.val.i, 0
  br i1 %8, label %9, label %11, !prof !13

9:                                                ; preds = %7
  %10 = add nuw i32 %.val.i, 1
  store i32 %10, ptr %3, align 4, !tbaa !8
  br label %lean_inc.exit24

11:                                               ; preds = %7
  %.not.i33 = icmp eq i32 %.val.i, 0
  br i1 %.not.i33, label %lean_inc.exit24, label %12

12:                                               ; preds = %11
  tail call void @lean_inc_ref_cold(ptr noundef nonnull %3) #7
  br label %lean_inc.exit24

lean_inc.exit24:                                  ; preds = %12, %11, %9, %4
  %13 = tail call ptr @lean_apply_1(ptr noundef %0, ptr noundef %3) #7
  %14 = ptrtoint ptr %13 to i64
  %15 = and i64 %14, 1
  %.not39 = icmp eq i64 %15, 0
  br i1 %.not39, label %16, label %lean_dec.exit23

16:                                               ; preds = %lean_inc.exit24
  %17 = load i32, ptr %13, align 4, !tbaa !8
  %18 = icmp sgt i32 %17, 1
  br i1 %18, label %19, label %21, !prof !13

19:                                               ; preds = %16
  %20 = add nsw i32 %17, -1
  store i32 %20, ptr %13, align 4, !tbaa !8
  br label %lean_dec.exit23

21:                                               ; preds = %16
  %.not.i = icmp eq i32 %17, 0
  br i1 %.not.i, label %lean_dec.exit23, label %22

22:                                               ; preds = %21
  tail call void @lean_dec_ref_cold(ptr noundef nonnull %13) #7
  br label %lean_dec.exit23

lean_dec.exit23:                                  ; preds = %22, %21, %19, %lean_inc.exit24
  %23 = and i64 %14, 510
  %24 = icmp eq i64 %23, 0
  br i1 %24, label %25, label %62

25:                                               ; preds = %lean_dec.exit23
  %26 = ptrtoint ptr %1 to i64
  %27 = and i64 %26, 1
  %.not.i34 = icmp eq i64 %27, 0
  br i1 %.not.i34, label %31, label %28

28:                                               ; preds = %25
  %29 = lshr i64 %26, 1
  %30 = trunc i64 %29 to i32
  br label %lean_obj_tag.exit

31:                                               ; preds = %25
  %32 = getelementptr i8, ptr %1, i64 4
  %.val.i35 = load i32, ptr %32, align 4
  %33 = lshr i32 %.val.i35, 24
  br label %lean_obj_tag.exit

lean_obj_tag.exit:                                ; preds = %28, %31
  %.0.i = phi i32 [ %30, %28 ], [ %33, %31 ]
  %34 = icmp eq i32 %.0.i, 0
  br i1 %34, label %35, label %43

35:                                               ; preds = %lean_obj_tag.exit
  br i1 %.not, label %36, label %lean_dec.exit22

36:                                               ; preds = %35
  %37 = load i32, ptr %3, align 4, !tbaa !8
  %38 = icmp sgt i32 %37, 1
  br i1 %38, label %39, label %41, !prof !13

39:                                               ; preds = %36
  %40 = add nsw i32 %37, -1
  store i32 %40, ptr %3, align 4, !tbaa !8
  br label %lean_dec.exit22

41:                                               ; preds = %36
  %.not.i25 = icmp eq i32 %37, 0
  br i1 %.not.i25, label %lean_dec.exit22, label %42

42:                                               ; preds = %41
  tail call void @lean_dec_ref_cold(ptr noundef nonnull %3) #7
  br label %lean_dec.exit22

43:                                               ; preds = %lean_obj_tag.exit
  %44 = getelementptr inbounds nuw i8, ptr %1, i64 8
  %45 = load ptr, ptr %44, align 8, !tbaa !4
  %46 = ptrtoint ptr %45 to i64
  %47 = and i64 %46, 1
  %.not41 = icmp eq i64 %47, 0
  br i1 %.not41, label %48, label %lean_inc.exit

48:                                               ; preds = %43
  %.val.i36 = load i32, ptr %45, align 4, !tbaa !8
  %49 = icmp sgt i32 %.val.i36, 0
  br i1 %49, label %50, label %52, !prof !13

50:                                               ; preds = %48
  %51 = add nuw i32 %.val.i36, 1
  store i32 %51, ptr %45, align 4, !tbaa !8
  br label %lean_inc.exit

52:                                               ; preds = %48
  %.not.i37 = icmp eq i32 %.val.i36, 0
  br i1 %.not.i37, label %lean_inc.exit, label %53

53:                                               ; preds = %52
  tail call void @lean_inc_ref_cold(ptr noundef nonnull %45) #7
  br label %lean_inc.exit

lean_inc.exit:                                    ; preds = %53, %52, %50, %43
  br i1 %.not.i34, label %54, label %lean_dec.exit21

54:                                               ; preds = %lean_inc.exit
  %55 = load i32, ptr %1, align 4, !tbaa !8
  %56 = icmp sgt i32 %55, 1
  br i1 %56, label %57, label %59, !prof !13

57:                                               ; preds = %54
  %58 = add nsw i32 %55, -1
  store i32 %58, ptr %1, align 4, !tbaa !8
  br label %lean_dec.exit21

59:                                               ; preds = %54
  %.not.i27 = icmp eq i32 %55, 0
  br i1 %.not.i27, label %lean_dec.exit21, label %60

60:                                               ; preds = %59
  tail call void @lean_dec_ref_cold(ptr noundef nonnull %1) #7
  br label %lean_dec.exit21

lean_dec.exit21:                                  ; preds = %60, %59, %57, %lean_inc.exit
  %61 = tail call ptr @lean_apply_1(ptr noundef %45, ptr noundef %3) #7
  br label %lean_dec.exit22

62:                                               ; preds = %lean_dec.exit23
  br i1 %.not, label %63, label %lean_dec.exit20

63:                                               ; preds = %62
  %64 = load i32, ptr %3, align 4, !tbaa !8
  %65 = icmp sgt i32 %64, 1
  br i1 %65, label %66, label %68, !prof !13

66:                                               ; preds = %63
  %67 = add nsw i32 %64, -1
  store i32 %67, ptr %3, align 4, !tbaa !8
  br label %lean_dec.exit20

68:                                               ; preds = %63
  %.not.i29 = icmp eq i32 %64, 0
  br i1 %.not.i29, label %lean_dec.exit20, label %69

69:                                               ; preds = %68
  tail call void @lean_dec_ref_cold(ptr noundef nonnull %3) #7
  br label %lean_dec.exit20

lean_dec.exit20:                                  ; preds = %69, %68, %66, %62
  %70 = ptrtoint ptr %1 to i64
  %71 = and i64 %70, 1
  %.not40 = icmp eq i64 %71, 0
  br i1 %.not40, label %72, label %lean_dec.exit

72:                                               ; preds = %lean_dec.exit20
  %73 = load i32, ptr %1, align 4, !tbaa !8
  %74 = icmp sgt i32 %73, 1
  br i1 %74, label %75, label %77, !prof !13

75:                                               ; preds = %72
  %76 = add nsw i32 %73, -1
  store i32 %76, ptr %1, align 4, !tbaa !8
  br label %lean_dec.exit

77:                                               ; preds = %72
  %.not.i31 = icmp eq i32 %73, 0
  br i1 %.not.i31, label %lean_dec.exit, label %78

78:                                               ; preds = %77
  tail call void @lean_dec_ref_cold(ptr noundef nonnull %1) #7
  br label %lean_dec.exit

lean_dec.exit:                                    ; preds = %78, %77, %75, %lean_dec.exit20
  %79 = zext i8 %2 to i64
  %80 = shl nuw nsw i64 %79, 1
  %81 = or disjoint i64 %80, 1
  %82 = inttoptr i64 %81 to ptr
  br label %lean_dec.exit22

lean_dec.exit22:                                  ; preds = %35, %39, %41, %42, %lean_dec.exit, %lean_dec.exit21
  %.0 = phi ptr [ %61, %lean_dec.exit21 ], [ %82, %lean_dec.exit ], [ inttoptr (i64 5 to ptr), %42 ], [ inttoptr (i64 5 to ptr), %41 ], [ inttoptr (i64 5 to ptr), %39 ], [ inttoptr (i64 5 to ptr), %35 ]
  ret ptr %.0
}